; ModuleID = '54/1148.c'
source_filename = "54/1148.c"
target datalayout = "e-m:e-p270:32:32-p271:32:32-p272:64:64-i64:64-f80:128-n8:16:32:64-S128"
target triple = "x86_64-pc-linux-gnu"

@.str = private unnamed_addr constant [7 x i8] c"%lf%lf\00", align 1
@.str.1 = private unnamed_addr constant [3 x i8] c"%d\00", align 1

; Function Attrs: noinline nounwind uwtable
define dso_local i32 @main() #0 {
  %1 = alloca i32, align 4
  %2 = alloca i32, align 4
  %3 = alloca i32, align 4
  %4 = alloca i32, align 4
  %5 = alloca i32, align 4
  %6 = alloca i32, align 4
  %7 = alloca i32, align 4
  %8 = alloca i32, align 4
  %9 = alloca i32, align 4
  %10 = alloca i32, align 4
  %11 = alloca double, align 8
  %12 = alloca double, align 8
  %13 = alloca double, align 8
  store i32 0, i32* %1, align 4
  %14 = call i32 (i8*, ...) @__isoc99_scanf(i8* getelementptr inbounds ([7 x i8], [7 x i8]* @.str, i64 0, i64 0), double* %12, double* %13)
  store i32 1, i32* %4, align 4
  br label %15

15:                                               ; preds = %49, %0
  %16 = load i32, i32* %4, align 4
  %17 = sitofp i32 %16 to double
  store double %17, double* %11, align 8
  store i32 0, i32* %2, align 4
  br label %18

18:                                               ; preds = %41, %15
  %19 = load i32, i32* %2, align 4
  %20 = sitofp i32 %19 to double
  %21 = load double, double* %12, align 8
  %22 = fcmp olt double %20, %21
  br i1 %22, label %23, label %44

23:                                               ; preds = %18
  store i32 1, i32* %5, align 4
  %24 = load double, double* %11, align 8
  %25 = fptosi double %24 to i32
  %26 = load double, double* %12, align 8
  %27 = fsub double %26, 1.000000e+00
  %28 = fptosi double %27 to i32
  %29 = srem i32 %25, %28
  %30 = icmp ne i32 %29, 0
  br i1 %30, label %31, label %32

31:                                               ; preds = %23
  store i32 0, i32* %5, align 4
  br label %44

32:                                               ; preds = %23
  %33 = load double, double* %11, align 8
  %34 = load double, double* %12, align 8
  %35 = fsub double %34, 1.000000e+00
  %36 = fdiv double %33, %35
  %37 = load double, double* %12, align 8
  %38 = fmul double %36, %37
  %39 = load double, double* %13, align 8
  %40 = fadd double %38, %39
  store double %40, double* %11, align 8
  br label %41

41:                                               ; preds = %32
  %42 = load i32, i32* %2, align 4
  %43 = add nsw i32 %42, 1
  store i32 %43, i32* %2, align 4
  br label %18

44:                                               ; preds = %31, %18
  %45 = load i32, i32* %5, align 4
  %46 = icmp eq i32 %45, 1
  br i1 %46, label %47, label %48

47:                                               ; preds = %44
  br label %52

48:                                               ; preds = %44
  br label %49

49:                                               ; preds = %48
  %50 = load i32, i32* %4, align 4
  %51 = add nsw i32 %50, 1
  store i32 %51, i32* %4, align 4
  br label %15

52:                                               ; preds = %47
  %53 = load double, double* %11, align 8
  %54 = fptosi double %53 to i32
  %55 = call i32 (i8*, ...) @printf(i8* getelementptr inbounds ([3 x i8], [3 x i8]* @.str.1, i64 0, i64 0), i32 %54)
  %56 = call i32 (i8*, ...) @__isoc99_scanf(i8* getelementptr inbounds ([3 x i8], [3 x i8]* @.str.1, i64 0, i64 0), i32* %10)
  ret i32 0
}

declare dso_local i32 @__isoc99_scanf(i8*, ...) #1

declare dso_local i32 @printf(i8*, ...) #1


!llvm.module.flags = !{!0}
!llvm.ident = !{!1}

!0 = !{i32 1, !"wchar_size", i32 4}
!1 = !{!"clang version 10.0.0-4ubuntu1 "}
