; ModuleID = 'source-C-CXX/53/1148.c'
source_filename = "source-C-CXX/53/1148.c"
target datalayout = "e-m:e-p270:32:32-p271:32:32-p272:64:64-i64:64-f80:128-n8:16:32:64-S128"
target triple = "x86_64-pc-linux-gnu"

@.str = private unnamed_addr constant [7 x i8] c"%lf%lf\00", align 1
@.str.1 = private unnamed_addr constant [3 x i8] c"%d\00", align 1

; Function Attrs: nofree nounwind sspstrong uwtable
define dso_local i32 @main() local_unnamed_addr #0 {
  %1 = alloca i32, align 4
  %2 = alloca double, align 8
  %3 = alloca double, align 8
  %4 = bitcast i32* %1 to i8*
  call void @llvm.lifetime.start.p0i8(i64 4, i8* nonnull %4) #3
  %5 = bitcast double* %2 to i8*
  call void @llvm.lifetime.start.p0i8(i64 8, i8* nonnull %5) #3
  %6 = bitcast double* %3 to i8*
  call void @llvm.lifetime.start.p0i8(i64 8, i8* nonnull %6) #3
  %7 = call i32 (i8*, ...) @__isoc99_scanf(i8* getelementptr inbounds ([7 x i8], [7 x i8]* @.str, i64 0, i64 0), double* nonnull %2, double* nonnull %3)
  %8 = load double, double* %2, align 8, !tbaa !5
  %9 = fadd double %8, -1.000000e+00
  %10 = fptosi double %9 to i32
  %11 = load double, double* %3, align 8
  %12 = fcmp ogt double %8, 0.000000e+00
  br i1 %12, label %13, label %33

13:                                               ; preds = %0, %29
  %14 = phi i32 [ %30, %29 ], [ 1, %0 ]
  %15 = sitofp i32 %14 to double
  br label %16

16:                                               ; preds = %13, %22
  %17 = phi double [ %15, %13 ], [ %25, %22 ]
  %18 = phi i32 [ 0, %13 ], [ %26, %22 ]
  %19 = fptosi double %17 to i32
  %20 = srem i32 %19, %10
  %21 = icmp eq i32 %20, 0
  br i1 %21, label %22, label %29

22:                                               ; preds = %16
  %23 = fdiv double %17, %9
  %24 = fmul double %8, %23
  %25 = fadd double %24, %11
  %26 = add nuw nsw i32 %18, 1
  %27 = sitofp i32 %26 to double
  %28 = fcmp ogt double %8, %27
  br i1 %28, label %16, label %31, !llvm.loop !9

29:                                               ; preds = %16
  %30 = add nuw nsw i32 %14, 1
  br label %13

31:                                               ; preds = %22
  %32 = fptosi double %25 to i32
  br label %33

33:                                               ; preds = %0, %31
  %34 = phi i32 [ %32, %31 ], [ 1, %0 ]
  %35 = call i32 (i8*, ...) @printf(i8* nonnull dereferenceable(1) getelementptr inbounds ([3 x i8], [3 x i8]* @.str.1, i64 0, i64 0), i32 %34)
  %36 = call i32 (i8*, ...) @__isoc99_scanf(i8* getelementptr inbounds ([3 x i8], [3 x i8]* @.str.1, i64 0, i64 0), i32* nonnull %1)
  call void @llvm.lifetime.end.p0i8(i64 8, i8* nonnull %6) #3
  call void @llvm.lifetime.end.p0i8(i64 8, i8* nonnull %5) #3
  call void @llvm.lifetime.end.p0i8(i64 4, i8* nonnull %4) #3
  ret i32 0
}

; Function Attrs: argmemonly mustprogress nofree nosync nounwind willreturn
declare void @llvm.lifetime.start.p0i8(i64 immarg, i8* nocapture) #1

; Function Attrs: nofree nounwind
declare noundef i32 @__isoc99_scanf(i8* nocapture noundef readonly, ...) local_unnamed_addr #2

; Function Attrs: nofree nounwind
declare noundef i32 @printf(i8* nocapture noundef readonly, ...) local_unnamed_addr #2

; Function Attrs: argmemonly mustprogress nofree nosync nounwind willreturn
declare void @llvm.lifetime.end.p0i8(i64 immarg, i8* nocapture) #1


!llvm.module.flags = !{!0, !1, !2, !3}
!llvm.ident = !{!4}

!0 = !{i32 1, !"wchar_size", i32 4}
!1 = !{i32 7, !"PIC Level", i32 2}
!2 = !{i32 7, !"PIE Level", i32 2}
!3 = !{i32 7, !"uwtable", i32 1}
!4 = !{!"clang version 13.0.0"}
!5 = !{!6, !6, i64 0}
!6 = !{!"double", !7, i64 0}
!7 = !{!"omnipotent char", !8, i64 0}
!8 = !{!"Simple C/C++ TBAA"}
!9 = distinct !{!9, !10}
!10 = !{!"llvm.loop.mustprogress"}
